; ModuleID = '25/485.cpp'
source_filename = "25/485.cpp"
target datalayout = "e-m:e-p270:32:32-p271:32:32-p272:64:64-i64:64-f80:128-n8:16:32:64-S128"
target triple = "x86_64-pc-linux-gnu"

%"class.std::ios_base::Init" = type { i8 }
%"class.std::basic_istream" = type { i32 (...)**, i64, %"class.std::basic_ios" }
%"class.std::basic_ios" = type { %"class.std::ios_base", %"class.std::basic_ostream"*, i8, i8, %"class.std::basic_streambuf"*, %"class.std::ctype"*, %"class.std::num_put"*, %"class.std::num_get"* }
%"class.std::ios_base" = type { i32 (...)**, i64, i64, i32, i32, i32, %"struct.std::ios_base::_Callback_list"*, %"struct.std::ios_base::_Words", [8 x %"struct.std::ios_base::_Words"], i32, %"struct.std::ios_base::_Words"*, %"class.std::locale" }
%"struct.std::ios_base::_Callback_list" = type { %"struct.std::ios_base::_Callback_list"*, void (i32, %"class.std::ios_base"*, i32)*, i32, i32 }
%"struct.std::ios_base::_Words" = type { i8*, i64 }
%"class.std::locale" = type { %"class.std::locale::_Impl"* }
%"class.std::locale::_Impl" = type { i32, %"class.std::locale::facet"**, i64, %"class.std::locale::facet"**, i8** }
%"class.std::locale::facet" = type <{ i32 (...)**, i32, [4 x i8] }>
%"class.std::basic_ostream" = type { i32 (...)**, %"class.std::basic_ios" }
%"class.std::basic_streambuf" = type { i32 (...)**, i8*, i8*, i8*, i8*, i8*, i8*, %"class.std::locale" }
%"class.std::ctype" = type <{ %"class.std::locale::facet.base", [4 x i8], %struct.__locale_struct*, i8, [7 x i8], i32*, i32*, i16*, i8, [256 x i8], [256 x i8], i8, [6 x i8] }>
%"class.std::locale::facet.base" = type <{ i32 (...)**, i32 }>
%struct.__locale_struct = type { [13 x %struct.__locale_data*], i16*, i32*, i32*, [13 x i8*] }
%struct.__locale_data = type opaque
%"class.std::num_put" = type { %"class.std::locale::facet.base", [4 x i8] }
%"class.std::num_get" = type { %"class.std::locale::facet.base", [4 x i8] }

@_ZStL8__ioinit = internal global %"class.std::ios_base::Init" zeroinitializer, align 1
@__dso_handle = external hidden global i8
@a = dso_local global [10002 x i8] zeroinitializer, align 16
@b = dso_local global [10001 x i32] zeroinitializer, align 16
@_ZSt3cin = external dso_local global %"class.std::basic_istream", align 8
@_ZSt4cout = external dso_local global %"class.std::basic_ostream", align 8
@llvm.global_ctors = appending global [1 x { i32, void ()*, i8* }] [{ i32, void ()*, i8* } { i32 65535, void ()* @_GLOBAL__sub_I_485.cpp, i8* null }]

; Function Attrs: noinline uwtable
define internal void @__cxx_global_var_init() #0 section ".text.startup" {
  call void @_ZNSt8ios_base4InitC1Ev(%"class.std::ios_base::Init"* @_ZStL8__ioinit)
  %1 = call i32 @__cxa_atexit(void (i8*)* bitcast (void (%"class.std::ios_base::Init"*)* @_ZNSt8ios_base4InitD1Ev to void (i8*)*), i8* getelementptr inbounds (%"class.std::ios_base::Init", %"class.std::ios_base::Init"* @_ZStL8__ioinit, i32 0, i32 0), i8* @__dso_handle) #3
  ret void
}

declare dso_local void @_ZNSt8ios_base4InitC1Ev(%"class.std::ios_base::Init"*) unnamed_addr #1

; Function Attrs: nounwind
declare dso_local void @_ZNSt8ios_base4InitD1Ev(%"class.std::ios_base::Init"*) unnamed_addr #2

; Function Attrs: nounwind
declare dso_local i32 @__cxa_atexit(void (i8*)*, i8*, i8*) #3

; Function Attrs: noinline norecurse uwtable
define dso_local i32 @main() #4 {
  %1 = alloca i32, align 4
  %2 = alloca i32, align 4
  %3 = alloca i32, align 4
  %4 = alloca i32, align 4
  %5 = alloca i32, align 4
  %6 = alloca i32, align 4
  store i32 0, i32* %1, align 4
  %7 = call dereferenceable(280) %"class.std::basic_istream"* @_ZNSirsERi(%"class.std::basic_istream"* @_ZSt3cin, i32* dereferenceable(4) %2)
  %8 = load i32, i32* %2, align 4
  %9 = icmp eq i32 %8, 0
  br i1 %9, label %10, label %12

10:                                               ; preds = %0
  %11 = call dereferenceable(272) %"class.std::basic_ostream"* @_ZNSolsEi(%"class.std::basic_ostream"* @_ZSt4cout, i32 1)
  store i32 0, i32* %1, align 4
  br label %171

12:                                               ; preds = %0
  store i32 0, i32* %3, align 4
  br label %13

13:                                               ; preds = %20, %12
  %14 = load i32, i32* %3, align 4
  %15 = icmp slt i32 %14, 10000
  br i1 %15, label %16, label %23

16:                                               ; preds = %13
  %17 = load i32, i32* %3, align 4
  %18 = sext i32 %17 to i64
  %19 = getelementptr inbounds [10002 x i8], [10002 x i8]* @a, i64 0, i64 %18
  store i8 48, i8* %19, align 1
  br label %20

20:                                               ; preds = %16
  %21 = load i32, i32* %3, align 4
  %22 = add nsw i32 %21, 1
  store i32 %22, i32* %3, align 4
  br label %13

23:                                               ; preds = %13
  %24 = load i32, i32* %3, align 4
  %25 = sext i32 %24 to i64
  %26 = getelementptr inbounds [10002 x i8], [10002 x i8]* @a, i64 0, i64 %25
  store i8 50, i8* %26, align 1
  store i32 1, i32* %3, align 4
  br label %27

27:                                               ; preds = %137, %23
  %28 = load i32, i32* %3, align 4
  %29 = load i32, i32* %2, align 4
  %30 = icmp slt i32 %28, %29
  br i1 %30, label %31, label %140

31:                                               ; preds = %27
  store i32 10000, i32* %5, align 4
  store i32 0, i32* %6, align 4
  br label %32

32:                                               ; preds = %39, %31
  %33 = load i32, i32* %6, align 4
  %34 = icmp slt i32 %33, 10001
  br i1 %34, label %35, label %42

35:                                               ; preds = %32
  %36 = load i32, i32* %6, align 4
  %37 = sext i32 %36 to i64
  %38 = getelementptr inbounds [10001 x i32], [10001 x i32]* @b, i64 0, i64 %37
  store i32 0, i32* %38, align 4
  br label %39

39:                                               ; preds = %35
  %40 = load i32, i32* %6, align 4
  %41 = add nsw i32 %40, 1
  store i32 %41, i32* %6, align 4
  br label %32

42:                                               ; preds = %32
  store i32 0, i32* %4, align 4
  br label %43

43:                                               ; preds = %55, %42
  %44 = load i32, i32* %4, align 4
  %45 = icmp slt i32 %44, 10001
  br i1 %45, label %46, label %58

46:                                               ; preds = %43
  %47 = load i32, i32* %4, align 4
  %48 = sext i32 %47 to i64
  %49 = getelementptr inbounds [10002 x i8], [10002 x i8]* @a, i64 0, i64 %48
  %50 = load i8, i8* %49, align 1
  %51 = sext i8 %50 to i32
  %52 = icmp ne i32 %51, 48
  br i1 %52, label %53, label %54

53:                                               ; preds = %46
  br label %58

54:                                               ; preds = %46
  br label %55

55:                                               ; preds = %54
  %56 = load i32, i32* %4, align 4
  %57 = add nsw i32 %56, 1
  store i32 %57, i32* %4, align 4
  br label %43

58:                                               ; preds = %53, %43
  br label %59

59:                                               ; preds = %133, %58
  %60 = load i32, i32* %5, align 4
  %61 = load i32, i32* %4, align 4
  %62 = icmp sge i32 %60, %61
  br i1 %62, label %63, label %136

63:                                               ; preds = %59
  %64 = load i32, i32* %5, align 4
  %65 = sext i32 %64 to i64
  %66 = getelementptr inbounds [10002 x i8], [10002 x i8]* @a, i64 0, i64 %65
  %67 = load i8, i8* %66, align 1
  %68 = sext i8 %67 to i32
  %69 = sub nsw i32 %68, 48
  %70 = mul nsw i32 %69, 2
  %71 = load i32, i32* %5, align 4
  %72 = sext i32 %71 to i64
  %73 = getelementptr inbounds [10001 x i32], [10001 x i32]* @b, i64 0, i64 %72
  %74 = load i32, i32* %73, align 4
  %75 = add nsw i32 %70, %74
  %76 = icmp slt i32 %75, 10
  br i1 %76, label %77, label %95

77:                                               ; preds = %63
  %78 = load i32, i32* %5, align 4
  %79 = sext i32 %78 to i64
  %80 = getelementptr inbounds [10002 x i8], [10002 x i8]* @a, i64 0, i64 %79
  %81 = load i8, i8* %80, align 1
  %82 = sext i8 %81 to i32
  %83 = sub nsw i32 %82, 48
  %84 = mul nsw i32 %83, 2
  %85 = load i32, i32* %5, align 4
  %86 = sext i32 %85 to i64
  %87 = getelementptr inbounds [10001 x i32], [10001 x i32]* @b, i64 0, i64 %86
  %88 = load i32, i32* %87, align 4
  %89 = add nsw i32 %84, %88
  %90 = add nsw i32 %89, 48
  %91 = trunc i32 %90 to i8
  %92 = load i32, i32* %5, align 4
  %93 = sext i32 %92 to i64
  %94 = getelementptr inbounds [10002 x i8], [10002 x i8]* @a, i64 0, i64 %93
  store i8 %91, i8* %94, align 1
  br label %133

95:                                               ; preds = %63
  %96 = load i32, i32* %5, align 4
  %97 = sub nsw i32 %96, 1
  %98 = sext i32 %97 to i64
  %99 = getelementptr inbounds [10001 x i32], [10001 x i32]* @b, i64 0, i64 %98
  store i32 1, i32* %99, align 4
  %100 = load i32, i32* %5, align 4
  %101 = load i32, i32* %4, align 4
  %102 = icmp eq i32 %100, %101
  br i1 %102, label %103, label %115

103:                                              ; preds = %95
  %104 = load i32, i32* %5, align 4
  %105 = sub nsw i32 %104, 1
  %106 = sext i32 %105 to i64
  %107 = getelementptr inbounds [10001 x i32], [10001 x i32]* @b, i64 0, i64 %106
  %108 = load i32, i32* %107, align 4
  %109 = add nsw i32 %108, 48
  %110 = trunc i32 %109 to i8
  %111 = load i32, i32* %5, align 4
  %112 = sub nsw i32 %111, 1
  %113 = sext i32 %112 to i64
  %114 = getelementptr inbounds [10002 x i8], [10002 x i8]* @a, i64 0, i64 %113
  store i8 %110, i8* %114, align 1
  br label %115

115:                                              ; preds = %103, %95
  %116 = load i32, i32* %5, align 4
  %117 = sext i32 %116 to i64
  %118 = getelementptr inbounds [10002 x i8], [10002 x i8]* @a, i64 0, i64 %117
  %119 = load i8, i8* %118, align 1
  %120 = sext i8 %119 to i32
  %121 = sub nsw i32 %120, 48
  %122 = mul nsw i32 %121, 2
  %123 = add nsw i32 %122, 38
  %124 = load i32, i32* %5, align 4
  %125 = sext i32 %124 to i64
  %126 = getelementptr inbounds [10001 x i32], [10001 x i32]* @b, i64 0, i64 %125
  %127 = load i32, i32* %126, align 4
  %128 = add nsw i32 %123, %127
  %129 = trunc i32 %128 to i8
  %130 = load i32, i32* %5, align 4
  %131 = sext i32 %130 to i64
  %132 = getelementptr inbounds [10002 x i8], [10002 x i8]* @a, i64 0, i64 %131
  store i8 %129, i8* %132, align 1
  br label %133

133:                                              ; preds = %115, %77
  %134 = load i32, i32* %5, align 4
  %135 = add nsw i32 %134, -1
  store i32 %135, i32* %5, align 4
  br label %59

136:                                              ; preds = %59
  br label %137

137:                                              ; preds = %136
  %138 = load i32, i32* %3, align 4
  %139 = add nsw i32 %138, 1
  store i32 %139, i32* %3, align 4
  br label %27

140:                                              ; preds = %27
  store i32 0, i32* %3, align 4
  br label %141

141:                                              ; preds = %153, %140
  %142 = load i32, i32* %3, align 4
  %143 = icmp slt i32 %142, 10001
  br i1 %143, label %144, label %156

144:                                              ; preds = %141
  %145 = load i32, i32* %3, align 4
  %146 = sext i32 %145 to i64
  %147 = getelementptr inbounds [10002 x i8], [10002 x i8]* @a, i64 0, i64 %146
  %148 = load i8, i8* %147, align 1
  %149 = sext i8 %148 to i32
  %150 = icmp ne i32 %149, 48
  br i1 %150, label %151, label %152

151:                                              ; preds = %144
  br label %156

152:                                              ; preds = %144
  br label %153

153:                                              ; preds = %152
  %154 = load i32, i32* %3, align 4
  %155 = add nsw i32 %154, 1
  store i32 %155, i32* %3, align 4
  br label %141

156:                                              ; preds = %151, %141
  %157 = load i32, i32* %3, align 4
  store i32 %157, i32* %4, align 4
  br label %158

158:                                              ; preds = %167, %156
  %159 = load i32, i32* %4, align 4
  %160 = icmp slt i32 %159, 10001
  br i1 %160, label %161, label %170

161:                                              ; preds = %158
  %162 = load i32, i32* %4, align 4
  %163 = sext i32 %162 to i64
  %164 = getelementptr inbounds [10002 x i8], [10002 x i8]* @a, i64 0, i64 %163
  %165 = load i8, i8* %164, align 1
  %166 = call dereferenceable(272) %"class.std::basic_ostream"* @_ZStlsISt11char_traitsIcEERSt13basic_ostreamIcT_ES5_c(%"class.std::basic_ostream"* dereferenceable(272) @_ZSt4cout, i8 signext %165)
  br label %167

167:                                              ; preds = %161
  %168 = load i32, i32* %4, align 4
  %169 = add nsw i32 %168, 1
  store i32 %169, i32* %4, align 4
  br label %158

170:                                              ; preds = %158
  store i32 0, i32* %1, align 4
  br label %171

171:                                              ; preds = %170, %10
  %172 = load i32, i32* %1, align 4
  ret i32 %172
}

declare dso_local dereferenceable(280) %"class.std::basic_istream"* @_ZNSirsERi(%"class.std::basic_istream"*, i32* dereferenceable(4)) #1

declare dso_local dereferenceable(272) %"class.std::basic_ostream"* @_ZNSolsEi(%"class.std::basic_ostream"*, i32) #1

declare dso_local dereferenceable(272) %"class.std::basic_ostream"* @_ZStlsISt11char_traitsIcEERSt13basic_ostreamIcT_ES5_c(%"class.std::basic_ostream"* dereferenceable(272), i8 signext) #1

; Function Attrs: noinline uwtable
define internal void @_GLOBAL__sub_I_485.cpp() #0 section ".text.startup" {
  call void @__cxx_global_var_init()
  ret void
}


!llvm.module.flags = !{!0}
!llvm.ident = !{!1}

!0 = !{i32 1, !"wchar_size", i32 4}
!1 = !{!"clang version 10.0.0-4ubuntu1 "}
